; Function Attrs: nounwind uwtable
define internal range(i32 0, 2) i32 @r_KER(ptr noundef %0) #0 {
  %2 = tail call i32 @out_grouping(ptr noundef %0, ptr noundef nonnull @g_vowel, i32 noundef 97, i32 noundef 117, i32 noundef 0) #4
  %.not = icmp eq i32 %2, 0
  br i1 %.not, label %3, label %5

3:                                                ; preds = %1
  %4 = tail call i32 @eq_s(ptr noundef %0, i32 noundef 2, ptr noundef nonnull @s_0) #4
  %.not2 = icmp ne i32 %4, 0
  %. = zext i1 %.not2 to i32
  br label %5

5:                                                ; preds = %3, %1
  %.0 = phi i32 [ 0, %1 ], [ %., %3 ]
  ret i32 %.0
}